target datalayout = "e-m:e-p270:32:32-p271:32:32-p272:64:64-i64:64-i128:128-f80:128-n8:16:32:64-S128"
target triple = "x86_64-pc-linux-gnu"

@dry_run = external global i8, align 1
@dstfd = internal global i32 -1, align 4
@dstpath = internal global [1024 x i8] zeroinitializer, align 16
@datadir_target = external global ptr, align 8
@.str = private unnamed_addr constant [6 x i8] c"%s/%s\00", align 1
@pg_file_create_mode = external global i32, align 4
@.str.1 = private unnamed_addr constant [36 x i8] c"could not open target file \22%s\22: %m\00", align 1
@.str.2 = private unnamed_addr constant [37 x i8] c"could not close target file \22%s\22: %m\00", align 1

; Function Attrs: nounwind uwtable
define dso_local void @close_target_file() #0 {
  %1 = load i32, ptr @dstfd, align 4
  %2 = icmp eq i32 %1, -1
  br i1 %2, label %3, label %4

3:                                                ; preds = %0
  br label %12

4:                                                ; preds = %0
  %5 = load i32, ptr @dstfd, align 4
  %6 = call i32 @close(i32 noundef %5)
  %7 = icmp ne i32 %6, 0
  br i1 %7, label %8, label %11

8:                                                ; preds = %4
  br label %9

9:                                                ; preds = %8
  call void (i32, i32, ptr, ...) @pg_log_generic(i32 noundef 4, i32 noundef 0, ptr noundef @.str.2, ptr noundef @dstpath)
  call void @exit(i32 noundef 1) #9
  unreachable

10:                                               ; No predecessors!
  br label %11

11:                                               ; preds = %10, %4
  store i32 -1, ptr @dstfd, align 4
  br label %12

12:                                               ; preds = %11, %3
  ret void
}

; Function Attrs: nounwind uwtable
define dso_local void @open_target_file(ptr noundef %0, i1 noundef zeroext %1) #0 {
  %3 = alloca ptr, align 8
  %4 = alloca i8, align 1
  %5 = alloca i32, align 4
  %6 = alloca i32, align 4
  store ptr %0, ptr %3, align 8
  %7 = zext i1 %1 to i8
  store i8 %7, ptr %4, align 1
  call void @llvm.lifetime.start.p0(i64 4, ptr %5) #7
  %8 = load i8, ptr @dry_run, align 1, !range !4, !noundef !5
  %9 = trunc i8 %8 to i1
  br i1 %9, label %10, label %11

10:                                               ; preds = %2
  store i32 1, ptr %6, align 4
  br label %46

11:                                               ; preds = %2
  %12 = load i32, ptr @dstfd, align 4
  %13 = icmp ne i32 %12, -1
  br i1 %13, label %14, label %26

14:                                               ; preds = %11
  %15 = load i8, ptr %4, align 1, !range !4, !noundef !5
  %16 = trunc i8 %15 to i1
  br i1 %16, label %26, label %17

17:                                               ; preds = %14
  %18 = load ptr, ptr %3, align 8
  %19 = load ptr, ptr @datadir_target, align 8
  %20 = call i64 @strlen(ptr noundef %19) #8
  %21 = add i64 %20, 1
  %22 = getelementptr inbounds nuw [1024 x i8], ptr @dstpath, i64 0, i64 %21
  %23 = call i32 @strcmp(ptr noundef %18, ptr noundef %22) #8
  %24 = icmp eq i32 %23, 0
  br i1 %24, label %25, label %26

25:                                               ; preds = %17
  store i32 1, ptr %6, align 4
  br label %46

26:                                               ; preds = %17, %14, %11
  call void @close_target_file()
  %27 = load ptr, ptr @datadir_target, align 8
  %28 = load ptr, ptr %3, align 8
  %29 = call i32 (ptr, i64, ptr, ...) @pg_snprintf(ptr noundef @dstpath, i64 noundef 1024, ptr noundef @.str, ptr noundef %27, ptr noundef %28)
  store i32 65, ptr %5, align 4
  %30 = load i8, ptr %4, align 1, !range !4, !noundef !5
  %31 = trunc i8 %30 to i1
  br i1 %31, label %32, label %35

32:                                               ; preds = %26
  %33 = load i32, ptr %5, align 4
  %34 = or i32 %33, 512
  store i32 %34, ptr %5, align 4
  br label %35

35:                                               ; preds = %32, %26
  %36 = load i32, ptr %5, align 4
  %37 = load i32, ptr @pg_file_create_mode, align 4
  %38 = call i32 (ptr, i32, ...) @open(ptr noundef @dstpath, i32 noundef %36, i32 noundef %37)
  store i32 %38, ptr @dstfd, align 4
  %39 = load i32, ptr @dstfd, align 4
  %40 = icmp slt i32 %39, 0
  br i1 %40, label %41, label %45

41:                                               ; preds = %35
  br label %42

42:                                               ; preds = %41
  call void (i32, i32, ptr, ...) @pg_log_generic(i32 noundef 4, i32 noundef 0, ptr noundef @.str.1, ptr noundef @dstpath)
  call void @exit(i32 noundef 1) #9
  unreachable

43:                                               ; No predecessors!
  br label %44

44:                                               ; preds = %43
  br label %45

45:                                               ; preds = %44, %35
  store i32 0, ptr %6, align 4
  br label %46

46:                                               ; preds = %45, %25, %10
  call void @llvm.lifetime.end.p0(i64 4, ptr %5) #7
  %47 = load i32, ptr %6, align 4
  switch i32 %47, label %49 [
    i32 0, label %48
    i32 1, label %48
  ]

48:                                               ; preds = %46, %46
  ret void

49:                                               ; preds = %46
  unreachable
}