; Function Attrs: nounwind uwtable
define dso_local void @open_target_file(ptr noundef %0, i1 noundef zeroext %1) local_unnamed_addr #0 {
  %3 = load i8, ptr @dry_run, align 1, !range !4, !noundef !5
  %4 = trunc nuw i8 %3 to i1
  br i1 %4, label %24, label %5

5:                                                ; preds = %2
  %6 = load i32, ptr @dstfd, align 4
  %.not = icmp eq i32 %6, -1
  %brmerge = or i1 %1, %.not
  br i1 %brmerge, label %14, label %7

7:                                                ; preds = %5
  %8 = load ptr, ptr @datadir_target, align 8
  %9 = tail call i64 @strlen(ptr noundef nonnull dereferenceable(1) %8) #10
  %10 = add i64 %9, 1
  %11 = getelementptr inbounds nuw [1024 x i8], ptr @dstpath, i64 0, i64 %10
  %12 = tail call i32 @strcmp(ptr noundef nonnull dereferenceable(1) %0, ptr noundef nonnull dereferenceable(1) %11) #10
  %13 = icmp eq i32 %12, 0
  br i1 %13, label %24, label %.thread

14:                                               ; preds = %5
  br i1 %.not, label %close_target_file.exit, label %.thread

.thread:                                          ; preds = %7, %14
  %15 = tail call i32 @close(i32 noundef %6) #11
  %.not.i = icmp eq i32 %15, 0
  br i1 %.not.i, label %17, label %16

16:                                               ; preds = %.thread
  tail call void (i32, i32, ptr, ...) @pg_log_generic(i32 noundef 4, i32 noundef 0, ptr noundef nonnull @.str.2, ptr noundef nonnull @dstpath) #11
  tail call void @exit(i32 noundef 1) #12
  unreachable

17:                                               ; preds = %.thread
  store i32 -1, ptr @dstfd, align 4
  br label %close_target_file.exit

close_target_file.exit:                           ; preds = %14, %17
  %18 = load ptr, ptr @datadir_target, align 8
  %19 = tail call i32 (ptr, i64, ptr, ...) @pg_snprintf(ptr noundef nonnull @dstpath, i64 noundef 1024, ptr noundef nonnull @.str, ptr noundef %18, ptr noundef %0) #11
  %spec.select = select i1 %1, i32 577, i32 65
  %20 = load i32, ptr @pg_file_create_mode, align 4
  %21 = tail call i32 (ptr, i32, ...) @open(ptr noundef nonnull @dstpath, i32 noundef %spec.select, i32 noundef %20) #11
  store i32 %21, ptr @dstfd, align 4
  %22 = icmp slt i32 %21, 0
  br i1 %22, label %23, label %24

23:                                               ; preds = %close_target_file.exit
  tail call void (i32, i32, ptr, ...) @pg_log_generic(i32 noundef 4, i32 noundef 0, ptr noundef nonnull @.str.1, ptr noundef nonnull @dstpath) #11
  tail call void @exit(i32 noundef 1) #12
  unreachable

24:                                               ; preds = %close_target_file.exit, %7, %2
  ret void
}